; Function Attrs: nounwind uwtable
define ptr @duckdb_je_bootstrap_malloc(i64 noundef %0) local_unnamed_addr #2 {
  %2 = icmp eq i64 %0, 0
  br i1 %2, label %3, label %4, !prof !7

3:                                                ; preds = %1
  br label %4

4:                                                ; preds = %3, %1
  %.0 = phi i64 [ 1, %3 ], [ %0, %1 ]
  %5 = tail call fastcc ptr @a0ialloc(i64 noundef %.0, i1 noundef zeroext false, i1 noundef zeroext false)
  ret ptr %5
}